     1                                 %line 1+1 program.asm
     2                                 [section .data]
     3                                 
     4                                 SYS_READ equ 0
     5                                 SYS_WRITE equ 1
     6                                 SYS_EXIT equ 60
     7                                 EXIT_SUCCESS equ 0
     8                                 
     9                                 STDIN equ 0
    10                                 STDOUT equ 1
    11                                 
    12                                 LF equ 10
    13                                 NULL equ 0
    14 00000000 0A00                   newline db LF,NULL
    15                                 
    16                                 
    17 00000002 746869732070726F67-    initialmsg db "this program shows the addition, subtraction, multiplication and division operations result between two integers",LF,NULL
    18 00000002 72616D2073686F7773-
    19 00000002 207468652061646469-
    20 00000002 74696F6E2C20737562-
    21 00000002 7472616374696F6E2C-
    22 00000002 206D756C7469706C69-
    23 00000002 636174696F6E20616E-
    24 00000002 64206469766973696F-
    25 00000002 6E206F706572617469-
    26 00000002 6F6E7320726573756C-
    27 00000002 74206265747765656E-
    28 00000002 2074776F20696E7465-
    29 00000002 676572730A00       
    30                                 
    31 00000074 2B00                   plus db "+", NULL
    32 00000076 2D00                   minus db "-", NULL
    33 00000078 2A00                   multiplication db "*", NULL
    34 0000007A 2F00                   division db "/", NULL
    35 0000007C 3D00                   equal db "=", NULL
    36                                 
    37 0000007E 6164646974696F6E3A-    addMsg db "addition:",LF,NULL
    38 0000007E 0A00               
    39 00000089 737562747261637469-    subMsg db "subtraction:",LF,NULL
    40 00000089 6F6E3A0A00         
    41 00000097 6D756C7469706C6963-    multiMsg db "multiplication:",LF,NULL
    42 00000097 6174696F6E3A0A00   
    43 000000A8 6469766973696F6E3A-    divMsg db "division:",LF,NULL
    44 000000A8 0A00               
    45                                 
    46 000000B3 D304000000000000       num1 dq 1235
    47 000000BB 3802000000000000       num2 dq 568
    48 000000C3 0000000000000000       addAns dq 0
    49 000000CB 0000000000000000       subAns dq 0
    50 000000D3 0000000000000000       multiAns dq 0
    51 000000DB 0000000000000000       divAns dq 0
    52                                 
    53                                 [section .bss]
    54 00000000 <gap>                  digitSpace resd 100
    55 00000190 <gap>                  digitSpacePos resd 8
    56                                 
    57                                 [section .text]
    58                                 [global _start]
    59                                 [global _stringPrint]
    60                                 [global _digitPrint]
    61                                 
    62                                 _start:
    63                                 
    64 00000000 48C7C7[00000000]       mov rdi, initialmsg
    65 00000007 E8D1010000             call _stringPrint
    66                                 
    67 0000000C 48C7C7[00000000]       mov rdi, newline
    68 00000013 E8C5010000             call _stringPrint
    69                                 
    70                                 
    71                                 
    72                                 
    73                                 
    74 00000018 48C7C7[00000000]       mov rdi, addMsg
    75 0000001F E8B9010000             call _stringPrint
    76 00000024 488B0425[00000000]     mov rax, qword[num1]
    77 0000002C E8DD010000             call _digitPrint
    78 00000031 48C7C7[00000000]       mov rdi, plus
    79 00000038 E8A0010000             call _stringPrint
    80 0000003D 488B0425[00000000]     mov rax, qword[num2]
    81 00000045 E8C4010000             call _digitPrint
    82 0000004A 488B0425[00000000]     mov rax,qword[num1]
    83 00000052 48030425[00000000]     add rax,qword[num2]
    84 0000005A 48890425[00000000]     mov qword[addAns],rax
    85 00000062 48C7C7[00000000]       mov rdi, equal
    86 00000069 E86F010000             call _stringPrint
    87 0000006E 488B0425[00000000]     mov rax, qword[addAns]
    88 00000076 E893010000             call _digitPrint
    89                                 
    90 0000007B 48C7C7[00000000]       mov rdi, newline
    91 00000082 E856010000             call _stringPrint
    92                                 
    93                                 
    94 00000087 48C7C7[00000000]       mov rdi, subMsg
    95 0000008E E84A010000             call _stringPrint
    96 00000093 488B0425[00000000]     mov rax, qword[num1]
    97 0000009B E86E010000             call _digitPrint
    98 000000A0 48C7C7[00000000]       mov rdi, minus
    99 000000A7 E831010000             call _stringPrint
   100 000000AC 488B0425[00000000]     mov rax, qword[num2]
   101 000000B4 E855010000             call _digitPrint
   102 000000B9 488B0425[00000000]     mov rax,qword[num1]
   103 000000C1 482B0425[00000000]     sub rax,qword[num2]
   104 000000C9 48890425[00000000]     mov qword[subAns],rax
   105 000000D1 48C7C7[00000000]       mov rdi, equal
   106 000000D8 E800010000             call _stringPrint
   107 000000DD 488B0425[00000000]     mov rax, qword[subAns]
   108 000000E5 E824010000             call _digitPrint
   109                                 
   110 000000EA 48C7C7[00000000]       mov rdi, newline
   111 000000F1 E8E7000000             call _stringPrint
   112                                 
   113                                 
   114 000000F6 48C7C7[00000000]       mov rdi, multiMsg
   115 000000FD E8DB000000             call _stringPrint
   116 00000102 488B0425[00000000]     mov rax, qword[num1]
   117 0000010A E8FF000000             call _digitPrint
   118 0000010F 48C7C7[00000000]       mov rdi, multiplication
   119 00000116 E8C2000000             call _stringPrint
   120 0000011B 488B0425[00000000]     mov rax, qword[num2]
   121 00000123 E8E6000000             call _digitPrint
   122 00000128 488B0425[00000000]     mov rax,qword[num1]
   123 00000130 48F72C25[00000000]     imul qword[num2]
   124 00000138 48890425[00000000]     mov qword[multiAns],rax
   125 00000140 48891425[08000000]     mov qword[multiAns+8],rdx
   126 00000148 48C7C7[00000000]       mov rdi, equal
   127 0000014F E889000000             call _stringPrint
   128 00000154 488B0425[00000000]     mov rax, qword[multiAns]
   129 0000015C E8AD000000             call _digitPrint
   130                                 
   131 00000161 48C7C7[00000000]       mov rdi, newline
   132 00000168 E870000000             call _stringPrint
   133                                 
   134                                 
   135 0000016D 48C7C7[00000000]       mov rdi, divMsg
   136 00000174 E864000000             call _stringPrint
   137 00000179 488B0425[00000000]     mov rax, qword[num1]
   138 00000181 E888000000             call _digitPrint
   139 00000186 48C7C7[00000000]       mov rdi, division
   140 0000018D E84B000000             call _stringPrint
   141 00000192 488B0425[00000000]     mov rax, qword[num2]
   142 0000019A E86F000000             call _digitPrint
   143 0000019F 488B0425[00000000]     mov rax,qword[num1]
   144 000001A7 4899                   cqo
   145 000001A9 48F73425[00000000]     div qword[num2]
   146 000001B1 48890425[00000000]     mov qword[divAns],rax
   147 000001B9 48C7C7[00000000]       mov rdi, equal
   148 000001C0 E818000000             call _stringPrint
   149 000001C5 488B0425[00000000]     mov rax, qword[divAns]
   150 000001CD E83C000000             call _digitPrint
   151                                 
   152                                 
   153                                 
   154                                 
   155 000001D2 48C7C03C000000         mov rax, SYS_EXIT
   156 000001D9 48C7C700000000         mov rdi, EXIT_SUCCESS
   157 000001E0 0F05                   syscall
   158                                 
   159                                 
   160                                 
   161                                 
   162                                 _stringPrint:
   163 000001E2 53                     push rbx
   164                                 
   165                                 
   166                                 
   167                                 
   168 000001E3 4889FB                 mov rbx,rdi
   169 000001E6 48C7C200000000         mov rdx, 0
   170                                 
   171                                 strCountLoop:
   172 000001ED 803B00                 cmp byte[rbx],NULL
   173 000001F0 7406                   je strCountDone
   174 000001F2 48FFC2                 inc rdx
   175 000001F5 48FFC3                 inc rbx
   176 000001F8 EBF1                   jmp strCountLoop
   177                                 
   178                                 strCountDone:
   179 000001FA 4883FA00               cmp rdx,0
   180 000001FE 740F                   je prtDone
   181                                 
   182                                 
   183                                 
   184 00000200 B801000000             mov eax, SYS_WRITE
   185 00000205 4889FE                 mov rsi, rdi
   186 00000208 48C7C701000000         mov rdi, STDOUT
   187 0000020F 0F05                   syscall
   188                                 
   189                                 prtDone:
   190 00000211 5B                     pop rbx
   191 00000212 C3                     ret
   192                                 
   193                                 
   194                                 _digitPrint:
   195 00000213 48C7C1[00000000]       mov rcx,digitSpace
   196 0000021A 488919                 mov [rcx],rbx
   197 0000021D 48FFC1                 inc rcx
   198 00000220 48890C25[00000000]     mov [digitSpacePos],rcx
   199                                 
   200                                 _digitPrintLoop:
   201 00000228 48C7C200000000         mov rdx, 0
   202 0000022F 48C7C30A000000         mov rbx, 10
   203 00000236 48F7F3                 div rbx
   204 00000239 50                     push rax
   205 0000023A 4883C230               add rdx,48
   206                                 
   207 0000023E 488B0C25[00000000]     mov rcx, [digitSpacePos]
   208 00000246 8811                   mov [rcx],dl
   209 00000248 48FFC1                 inc rcx
   210 0000024B 48890C25[00000000]     mov [digitSpacePos], rcx
   211                                 
   212 00000253 58                     pop rax
   213 00000254 4883F800               cmp rax,0
   214 00000258 75CC                   jne _digitPrintLoop
   215                                 
   216                                 _digitPrintLoop2:
   217 0000025A 488B0C25[00000000]     mov rcx,[digitSpacePos]
   218                                 
   219 00000262 48C7C001000000         mov rax,SYS_WRITE
   220 00000269 48C7C701000000         mov rdi,STDOUT
   221 00000270 4889CE                 mov rsi,rcx
   222 00000273 48C7C201000000         mov rdx,1
   223 0000027A 0F05                   syscall
   224                                 
   225 0000027C 488B0C25[00000000]     mov rcx, [digitSpacePos]
   226 00000284 48FFC9                 dec rcx
   227 00000287 48890C25[00000000]     mov [digitSpacePos],rcx
   228                                 
   229 0000028F 4881F9[00000000]       cmp rcx,digitSpace
   230 00000296 7DC0                   jge _digitPrintLoop2
   231 00000298 C3                     ret
